ccopy_reg
_reconstructor
p0
(csklearn.svm.classes
SVC
p1
c__builtin__
object
p2
Ntp3
Rp4
(dp5
S'_impl'
p6
S'c_svc'
p7
sS'kernel'
p8
S'poly'
p9
sS'C'
p10
F0.020235896477251575
sS'verbose'
p11
I00
sS'probability'
p12
I00
sS'degree'
p13
I4
sS'epsilon'
p14
F0.0
sS'shrinking'
p15
I01
sS'max_iter'
p16
I1000
sS'decision_function_shape'
p17
NsS'random_state'
p18
NsS'tol'
p19
F0.001
sS'cache_size'
p20
I200
sS'coef0'
p21
F0.0
sS'nu'
p22
F0.0
sS'gamma'
p23
F6.250551925273976
sS'class_weight'
p24
Nsb.